{
   <insert_a_suppression_name_here>
   drd:ConflictingAccess
   fun:_ZNSt6thread5_ImplISt12_Bind_simpleIFPFvSt10shared_ptrI8CustomerEES4_EEED1Ev
   fun:_ZN9__gnu_cxx13new_allocatorINSt6thread5_ImplISt12_Bind_simpleIFPFvSt10shared_ptrI8CustomerEES6_EEEEE7destroyISB_EEvPT_
   fun:_ZNSt16allocator_traitsISaINSt6thread5_ImplISt12_Bind_simpleIFPFvSt10shared_ptrI8CustomerEES5_EEEEEE10_S_destroyISA_EENSt9enable_ifIXsrNSC_16__destroy_helperIT_EE5valueEvE4typeERSB_PSG_
   fun:_ZNSt16allocator_traitsISaINSt6thread5_ImplISt12_Bind_simpleIFPFvSt10shared_ptrI8CustomerEES5_EEEEEE7destroyISA_EEvRSB_PT_
   fun:_ZNSt23_Sp_counted_ptr_inplaceINSt6thread5_ImplISt12_Bind_simpleIFPFvSt10shared_ptrI8CustomerEES5_EEEESaISA_ELN9__gnu_cxx12_Lock_policyE2EE10_M_disposeEv
   fun:_ZNSt16_Sp_counted_baseILN9__gnu_cxx12_Lock_policyE2EE10_M_releaseEv
   fun:_ZNSt14__shared_countILN9__gnu_cxx12_Lock_policyE2EED1Ev
   fun:_ZNSt12__shared_ptrINSt6thread10_Impl_baseELN9__gnu_cxx12_Lock_policyE2EED2Ev
   fun:_ZNSt10shared_ptrINSt6thread10_Impl_baseEED1Ev
   fun:_ZNSt6threadC1IRFvSt10shared_ptrI8CustomerEEIRS3_EEEOT_DpOT0_
   fun:main
}
{
   <insert_a_suppression_name_here>
   drd:ConflictingAccess
   fun:_ZNSt14__shared_countILN9__gnu_cxx12_Lock_policyE2EED1Ev
   fun:_ZNSt12__shared_ptrI8CustomerLN9__gnu_cxx12_Lock_policyE2EED2Ev
   fun:_ZNSt10shared_ptrI8CustomerED1Ev
   fun:_ZNSt10_Head_baseILm1ESt10shared_ptrI8CustomerELb0EED1Ev
   fun:_ZNSt11_Tuple_implILm1EISt10shared_ptrI8CustomerEEED1Ev
   fun:_ZNSt11_Tuple_implILm0EIPFvSt10shared_ptrI8CustomerEES2_EED1Ev
   fun:_ZNSt5tupleIIPFvSt10shared_ptrI8CustomerEES2_EED1Ev
   fun:_ZNSt12_Bind_simpleIFPFvSt10shared_ptrI8CustomerEES2_EED1Ev
   fun:_ZNSt6thread5_ImplISt12_Bind_simpleIFPFvSt10shared_ptrI8CustomerEES4_EEED1Ev
   fun:_ZN9__gnu_cxx13new_allocatorINSt6thread5_ImplISt12_Bind_simpleIFPFvSt10shared_ptrI8CustomerEES6_EEEEE7destroyISB_EEvPT_
   fun:_ZNSt16allocator_traitsISaINSt6thread5_ImplISt12_Bind_simpleIFPFvSt10shared_ptrI8CustomerEES5_EEEEEE10_S_destroyISA_EENSt9enable_ifIXsrNSC_16__destroy_helperIT_EE5valueEvE4typeERSB_PSG_
   fun:_ZNSt16allocator_traitsISaINSt6thread5_ImplISt12_Bind_simpleIFPFvSt10shared_ptrI8CustomerEES5_EEEEEE7destroyISA_EEvRSB_PT_
}
{
   <insert_a_suppression_name_here>
   drd:ConflictingAccess
   fun:_ZNSt6thread10_Impl_baseD1Ev
   fun:_ZNSt6thread5_ImplISt12_Bind_simpleIFPFvSt10shared_ptrI8CustomerEES4_EEED1Ev
   fun:_ZN9__gnu_cxx13new_allocatorINSt6thread5_ImplISt12_Bind_simpleIFPFvSt10shared_ptrI8CustomerEES6_EEEEE7destroyISB_EEvPT_
   fun:_ZNSt16allocator_traitsISaINSt6thread5_ImplISt12_Bind_simpleIFPFvSt10shared_ptrI8CustomerEES5_EEEEEE10_S_destroyISA_EENSt9enable_ifIXsrNSC_16__destroy_helperIT_EE5valueEvE4typeERSB_PSG_
   fun:_ZNSt16allocator_traitsISaINSt6thread5_ImplISt12_Bind_simpleIFPFvSt10shared_ptrI8CustomerEES5_EEEEEE7destroyISA_EEvRSB_PT_
   fun:_ZNSt23_Sp_counted_ptr_inplaceINSt6thread5_ImplISt12_Bind_simpleIFPFvSt10shared_ptrI8CustomerEES5_EEEESaISA_ELN9__gnu_cxx12_Lock_policyE2EE10_M_disposeEv
   fun:_ZNSt16_Sp_counted_baseILN9__gnu_cxx12_Lock_policyE2EE10_M_releaseEv
   fun:_ZNSt14__shared_countILN9__gnu_cxx12_Lock_policyE2EED1Ev
   fun:_ZNSt12__shared_ptrINSt6thread10_Impl_baseELN9__gnu_cxx12_Lock_policyE2EED2Ev
   fun:_ZNSt10shared_ptrINSt6thread10_Impl_baseEED1Ev
   fun:_ZNSt6threadC1IRFvSt10shared_ptrI8CustomerEEIRS3_EEEOT_DpOT0_
   fun:main
}
{
   <insert_a_suppression_name_here>
   drd:ConflictingAccess
   fun:_ZNSt14__shared_countILN9__gnu_cxx12_Lock_policyE2EED1Ev
   fun:_ZNSt12__shared_ptrINSt6thread10_Impl_baseELN9__gnu_cxx12_Lock_policyE2EED2Ev
   fun:_ZNSt10shared_ptrINSt6thread10_Impl_baseEED1Ev
   fun:_ZNSt6thread10_Impl_baseD1Ev
   fun:_ZNSt6thread5_ImplISt12_Bind_simpleIFPFvSt10shared_ptrI8CustomerEES4_EEED1Ev
   fun:_ZN9__gnu_cxx13new_allocatorINSt6thread5_ImplISt12_Bind_simpleIFPFvSt10shared_ptrI8CustomerEES6_EEEEE7destroyISB_EEvPT_
   fun:_ZNSt16allocator_traitsISaINSt6thread5_ImplISt12_Bind_simpleIFPFvSt10shared_ptrI8CustomerEES5_EEEEEE10_S_destroyISA_EENSt9enable_ifIXsrNSC_16__destroy_helperIT_EE5valueEvE4typeERSB_PSG_
   fun:_ZNSt16allocator_traitsISaINSt6thread5_ImplISt12_Bind_simpleIFPFvSt10shared_ptrI8CustomerEES5_EEEEEE7destroyISA_EEvRSB_PT_
   fun:_ZNSt23_Sp_counted_ptr_inplaceINSt6thread5_ImplISt12_Bind_simpleIFPFvSt10shared_ptrI8CustomerEES5_EEEESaISA_ELN9__gnu_cxx12_Lock_policyE2EE10_M_disposeEv
   fun:_ZNSt16_Sp_counted_baseILN9__gnu_cxx12_Lock_policyE2EE10_M_releaseEv
   fun:_ZNSt14__shared_countILN9__gnu_cxx12_Lock_policyE2EED1Ev
   fun:_ZNSt12__shared_ptrINSt6thread10_Impl_baseELN9__gnu_cxx12_Lock_policyE2EED2Ev
}

